target datalayout = "e-m:e-p270:32:32-p271:32:32-p272:64:64-i64:64-i128:128-f80:128-n8:16:32:64-S128"
target triple = "x86_64-unknown-linux-gnu"

%"class.v8::IndirectHandleBase" = type { ptr }
%"class.v8::Local" = type { %"class.v8::LocalBase" }
%"class.v8::LocalBase" = type { %"class.v8::IndirectHandleBase" }
%"class.v8::LocalBase.342" = type { %"class.v8::IndirectHandleBase" }
%"class.v8::Local.341" = type { %"class.v8::LocalBase.342" }
%"class.v8::FunctionCallbackInfo" = type <{ ptr, ptr, i32, [4 x i8] }>
%"class.node::MemoryRetainer" = type { ptr }
%"struct.std::__detail::_Hash_node_base" = type { ptr }
%"struct.std::__detail::_Prime_rehash_policy" = type { float, i64 }
%"class.v8::Global.17" = type { %"class.v8::PersistentBase.18" }
%"class.v8::PersistentBase.18" = type { %"class.v8::IndirectHandleBase" }
%"class.std::vector.96" = type { %"struct.std::_Vector_base.97" }
%"struct.std::_Vector_base.97" = type { %"struct.std::_Vector_base<std::__cxx11::basic_string<char>, std::allocator<std::__cxx11::basic_string<char>>>::_Vector_impl" }
%"struct.std::_Vector_base<std::__cxx11::basic_string<char>, std::allocator<std::__cxx11::basic_string<char>>>::_Vector_impl" = type { %"struct.std::_Vector_base<std::__cxx11::basic_string<char>, std::allocator<std::__cxx11::basic_string<char>>>::_Vector_impl_data" }
%"struct.std::_Vector_base<std::__cxx11::basic_string<char>, std::allocator<std::__cxx11::basic_string<char>>>::_Vector_impl_data" = type { ptr, ptr, ptr }
%"class.node::CleanupQueue" = type { %"class.node::MemoryRetainer", %"class.std::unordered_set.184", i64 }
%"class.std::unordered_set.184" = type { %"class.std::_Hashtable.185" }
%"class.std::_Hashtable.185" = type { ptr, i64, %"struct.std::__detail::_Hash_node_base", i64, %"struct.std::__detail::_Prime_rehash_policy", ptr }
%"class.node::BaseObject" = type { %"class.node::MemoryRetainer", %"class.v8::Global.257", ptr, ptr }
%"class.v8::Global.257" = type { %"class.v8::PersistentBase.258" }
%"class.v8::PersistentBase.258" = type { %"class.v8::IndirectHandleBase" }
%"class.node::Realm" = type { %"class.node::MemoryRetainer", %"class.std::set", %"class.std::set.265", %"class.std::set.265", %"class.std::vector.96", ptr, ptr, %"class.v8::Global.273", %"class.v8::Global.17", %"class.v8::Global.17", %"class.v8::Global.17", %"class.v8::Global.257", %"class.v8::Global.17", %"class.v8::Global.17", %"class.v8::Global.17", %"class.v8::Global.257", %"class.v8::Global.17", %"class.v8::Global.17", %"class.v8::Global.17", %"class.v8::Global.17", %"class.v8::Global.17", %"class.v8::Global.17", %"class.v8::Global.17", %"class.v8::Global.17", %"class.v8::Global.17", %"class.v8::Global.17", %"class.v8::Global.17", %"class.v8::Global.17", %"class.v8::Global.17", %"class.v8::Global.17", %"class.v8::Global.17", %"class.v8::Global.17", %"class.v8::Global.17", %"class.v8::Global.17", %"class.v8::Global.17", %"class.v8::Global.17", %"class.v8::Global.17", %"class.v8::Global.17", %"class.v8::Global.17", %"class.v8::Global.17", %"class.v8::Global.17", %"class.v8::Global.17", %"class.v8::Global.17", %"class.v8::Global.17", %"class.v8::Global.257", %"class.v8::Global.17", %"class.v8::Global.17", %"class.v8::Global.17", %"class.v8::Global.257", %"class.v8::Global.257", %"class.v8::Global.257", %"class.v8::Global.257", %"class.v8::Global.257", %"class.v8::Global.257", %"class.v8::Global.17", %"class.v8::Global.17", %"class.v8::Global.17", %"class.v8::Global.17", %"class.v8::Global.17", %"class.v8::Global.17", %"class.v8::Global.17", %"class.v8::Global.17", %"class.v8::Global.17", %"class.v8::Global.17", %"class.v8::Global.17", %"class.v8::Global.17", %"class.v8::Global.17", %"class.v8::Global.17", i32, i8, i64, i64, %"struct.std::array.275", %"class.node::CleanupQueue" }
%"class.std::set" = type { %"class.std::_Rb_tree" }
%"class.std::_Rb_tree" = type { %"struct.std::_Rb_tree<node::node_module *, node::node_module *, std::_Identity<node::node_module *>, std::less<node::node_module *>>::_Rb_tree_impl" }
%"struct.std::_Rb_tree<node::node_module *, node::node_module *, std::_Identity<node::node_module *>, std::less<node::node_module *>>::_Rb_tree_impl" = type { %"struct.std::_Rb_tree_key_compare", %"struct.std::_Rb_tree_header" }
%"struct.std::_Rb_tree_key_compare" = type { %"struct.std::less" }
%"struct.std::less" = type { i8 }
%"struct.std::_Rb_tree_header" = type { %"struct.std::_Rb_tree_node_base", i64 }
%"struct.std::_Rb_tree_node_base" = type { i32, ptr, ptr, ptr }
%"class.std::set.265" = type { %"class.std::_Rb_tree.266" }
%"class.std::_Rb_tree.266" = type { %"struct.std::_Rb_tree<std::__cxx11::basic_string<char>, std::__cxx11::basic_string<char>, std::_Identity<std::__cxx11::basic_string<char>>, std::less<std::__cxx11::basic_string<char>>>::_Rb_tree_impl" }
%"struct.std::_Rb_tree<std::__cxx11::basic_string<char>, std::__cxx11::basic_string<char>, std::_Identity<std::__cxx11::basic_string<char>>, std::less<std::__cxx11::basic_string<char>>>::_Rb_tree_impl" = type { %"struct.std::_Rb_tree_key_compare.270", %"struct.std::_Rb_tree_header" }
%"struct.std::_Rb_tree_key_compare.270" = type { %"struct.std::less.271" }
%"struct.std::less.271" = type { i8 }
%"class.v8::Global.273" = type { %"class.v8::PersistentBase.274" }
%"class.v8::PersistentBase.274" = type { %"class.v8::IndirectHandleBase" }
%"struct.std::array.275" = type { [12 x %"class.node::BaseObjectPtrImpl"] }
%"class.node::BaseObjectPtrImpl" = type { %union.anon.276 }
%union.anon.276 = type { ptr }

; Function Attrs: mustprogress nounwind uwtable
define linkonce_odr dso_local noundef ptr @_ZNK4node5Realm3envEv(ptr noundef nonnull align 8 dereferenceable(872) %this) #4 comdat align 2 {
entry:
  %this.addr = alloca ptr, align 8
  store ptr %this, ptr %this.addr, align 8
  %this1 = load ptr, ptr %this.addr, align 8
  %env_ = getelementptr inbounds %"class.node::Realm", ptr %this1, i32 0, i32 5
  %0 = load ptr, ptr %env_, align 8
  ret ptr %0
}

; Function Attrs: mustprogress nounwind uwtable
define linkonce_odr dso_local noundef ptr @_ZNK4node10BaseObject3envEv(ptr noundef nonnull align 8 dereferenceable(32) %this) #4 comdat align 2 {
entry:
  %this.addr = alloca ptr, align 8
  store ptr %this, ptr %this.addr, align 8
  %this1 = load ptr, ptr %this.addr, align 8
  %realm_ = getelementptr inbounds %"class.node::BaseObject", ptr %this1, i32 0, i32 2
  %0 = load ptr, ptr %realm_, align 8
  %call = call noundef ptr @_ZNK4node5Realm3envEv(ptr noundef nonnull align 8 dereferenceable(872) %0)
  ret ptr %call
}

; Function Attrs: mustprogress nounwind uwtable
define dso_local void @_ZN4node6timers11BindingData22ToggleImmediateRefImplEPS1_b(ptr noundef %data, i1 noundef zeroext %ref) #4 align 2 {
entry:
  %data.addr = alloca ptr, align 8
  %ref.addr = alloca i8, align 1
  store ptr %data, ptr %data.addr, align 8
  %frombool = zext i1 %ref to i8
  store i8 %frombool, ptr %ref.addr, align 1
  %0 = load ptr, ptr %data.addr, align 8
  %call = call noundef ptr @_ZNK4node10BaseObject3envEv(ptr noundef nonnull align 8 dereferenceable(32) %0)
  %1 = load i8, ptr %ref.addr, align 1
  %tobool = trunc i8 %1 to i1
  call void @_ZN4node11Environment18ToggleImmediateRefEb(ptr noundef nonnull align 8 dereferenceable(2872) %call, i1 noundef zeroext %tobool)
  ret void
}

; Function Attrs: mustprogress nounwind uwtable
define dso_local void @_ZN4node6timers11BindingData22SlowToggleImmediateRefERKN2v820FunctionCallbackInfoINS2_5ValueEEE(ptr noundef nonnull align 8 dereferenceable(20) %args) #4 align 2 {
entry:
  %slot.addr.i44 = alloca ptr, align 8
  %this.addr.i.i40 = alloca ptr, align 8
  %this.addr.i41 = alloca ptr, align 8
  %this.addr.i.i = alloca ptr, align 8
  %location.addr.i.i = alloca ptr, align 8
  %this.addr.i37 = alloca ptr, align 8
  %location.addr.i38 = alloca ptr, align 8
  %this.addr.i34 = alloca ptr, align 8
  %other.addr.i35 = alloca ptr, align 8
  %retval.i32 = alloca %"class.v8::LocalBase", align 8
  %slot.addr.i33 = alloca ptr, align 8
  %this.addr.i29 = alloca ptr, align 8
  %other.addr.i30 = alloca ptr, align 8
  %this.addr.i26 = alloca ptr, align 8
  %location.addr.i27 = alloca ptr, align 8
  %this.addr.i24 = alloca ptr, align 8
  %location.addr.i = alloca ptr, align 8
  %this.addr.i22 = alloca ptr, align 8
  %other.addr.i = alloca ptr, align 8
  %retval.i20 = alloca %"class.v8::LocalBase.342", align 8
  %slot.addr.i21 = alloca ptr, align 8
  %retval.i17 = alloca %"class.v8::Local.341", align 8
  %slot.addr.i18 = alloca ptr, align 8
  %ref.tmp.i19 = alloca %"class.v8::LocalBase.342", align 8
  %isolate.addr.i16 = alloca ptr, align 8
  %index.addr.i = alloca i32, align 4
  %addr.i = alloca i64, align 8
  %isolate.addr.i15 = alloca ptr, align 8
  %retval.i13 = alloca %"class.v8::Local", align 8
  %slot.addr.i = alloca ptr, align 8
  %ref.tmp.i = alloca %"class.v8::LocalBase", align 8
  %that.i = alloca %"class.v8::Local.341", align 8
  %this.addr.i12 = alloca ptr, align 8
  %retval.i11 = alloca %"class.v8::Local.341", align 8
  %isolate.addr.i = alloca ptr, align 8
  %slot.i = alloca ptr, align 8
  %this.addr.i9 = alloca ptr, align 8
  %this.addr.i6 = alloca ptr, align 8
  %retval.i = alloca %"class.v8::Local", align 8
  %this.addr.i = alloca ptr, align 8
  %i.addr.i = alloca i32, align 4
  %agg.tmp.i = alloca %"class.v8::Local.341", align 8
  %args.addr = alloca ptr, align 8
  %ref.tmp = alloca %"class.v8::Local", align 8
  store ptr %args, ptr %args.addr, align 8
  %0 = load ptr, ptr %args.addr, align 8
  %call = call noundef ptr @_ZN4node5Realm14GetBindingDataINS_6timers11BindingDataEEEPT_RKN2v820FunctionCallbackInfoINS6_5ValueEEE(ptr noundef nonnull align 8 dereferenceable(20) %0)
  %1 = load ptr, ptr %args.addr, align 8
  store ptr %1, ptr %this.addr.i, align 8
  store i32 0, ptr %i.addr.i, align 4
  %this1.i = load ptr, ptr %this.addr.i, align 8
  %2 = load i32, ptr %i.addr.i, align 4
  %cmp.i = icmp slt i32 %2, 0
  br i1 %cmp.i, label %if.then.i, label %lor.lhs.false.i

lor.lhs.false.i:                                  ; preds = %entry
  %length_.i = getelementptr inbounds %"class.v8::FunctionCallbackInfo", ptr %this1.i, i32 0, i32 2
  %3 = load i32, ptr %length_.i, align 8
  %4 = load i32, ptr %i.addr.i, align 4
  %cmp2.i = icmp sle i32 %3, %4
  br i1 %cmp2.i, label %if.then.i, label %if.end.i

if.then.i:                                        ; preds = %lor.lhs.false.i, %entry
  store ptr %this1.i, ptr %this.addr.i9, align 8
  %this1.i10 = load ptr, ptr %this.addr.i9, align 8
  %5 = load ptr, ptr %this1.i10, align 8
  %arrayidx.i = getelementptr inbounds i64, ptr %5, i64 1
  %6 = load ptr, ptr %arrayidx.i, align 8
  store ptr %6, ptr %isolate.addr.i, align 8
  %7 = load ptr, ptr %isolate.addr.i, align 8
  store ptr %7, ptr %isolate.addr.i15, align 8
  %8 = load ptr, ptr %isolate.addr.i, align 8
  store ptr %8, ptr %isolate.addr.i16, align 8
  store i32 4, ptr %index.addr.i, align 4
  %9 = load ptr, ptr %isolate.addr.i16, align 8
  %10 = ptrtoint ptr %9 to i64
  %add.i = add i64 %10, 576
  %11 = load i32, ptr %index.addr.i, align 4
  %mul.i = mul nsw i32 %11, 8
  %conv.i = sext i32 %mul.i to i64
  %add1.i = add i64 %add.i, %conv.i
  store i64 %add1.i, ptr %addr.i, align 8
  %12 = load i64, ptr %addr.i, align 8
  %13 = inttoptr i64 %12 to ptr
  store ptr %13, ptr %slot.i, align 8
  %14 = load ptr, ptr %slot.i, align 8
  store ptr %14, ptr %slot.addr.i18, align 8
  %15 = load ptr, ptr %slot.addr.i18, align 8
  store ptr %15, ptr %slot.addr.i21, align 8
  %16 = load ptr, ptr %slot.addr.i21, align 8
  store ptr %retval.i20, ptr %this.addr.i24, align 8
  store ptr %16, ptr %location.addr.i, align 8
  %this1.i25 = load ptr, ptr %this.addr.i24, align 8
  %17 = load ptr, ptr %location.addr.i, align 8
  store ptr %this1.i25, ptr %this.addr.i26, align 8
  store ptr %17, ptr %location.addr.i27, align 8
  %this1.i28 = load ptr, ptr %this.addr.i26, align 8
  %18 = load ptr, ptr %location.addr.i27, align 8
  store ptr %18, ptr %this1.i28, align 8
  %19 = load ptr, ptr %retval.i20, align 8
  store ptr %19, ptr %ref.tmp.i19, align 8
  store ptr %retval.i17, ptr %this.addr.i22, align 8
  store ptr %ref.tmp.i19, ptr %other.addr.i, align 8
  %this1.i23 = load ptr, ptr %this.addr.i22, align 8
  %20 = load ptr, ptr %other.addr.i, align 8
  call void @llvm.memcpy.p0.p0.i64(ptr align 8 %this1.i23, ptr align 8 %20, i64 8, i1 false)
  %21 = load ptr, ptr %retval.i17, align 8
  store ptr %21, ptr %retval.i11, align 8
  %22 = load ptr, ptr %retval.i11, align 8
  store ptr %22, ptr %agg.tmp.i, align 8
  %23 = load ptr, ptr %agg.tmp.i, align 8
  store ptr %23, ptr %that.i, align 8
  store ptr %retval.i, ptr %this.addr.i12, align 8
  %this3.i = load ptr, ptr %this.addr.i12, align 8
  store ptr %this3.i, ptr %this.addr.i29, align 8
  store ptr %that.i, ptr %other.addr.i30, align 8
  %this1.i31 = load ptr, ptr %this.addr.i29, align 8
  %24 = load ptr, ptr %other.addr.i30, align 8
  call void @llvm.memcpy.p0.p0.i64(ptr align 8 %this1.i31, ptr align 8 %24, i64 8, i1 false)
  br label %_ZNK2v820FunctionCallbackInfoINS_5ValueEEixEi.exit

if.end.i:                                         ; preds = %lor.lhs.false.i
  %values_.i = getelementptr inbounds %"class.v8::FunctionCallbackInfo", ptr %this1.i, i32 0, i32 1
  %25 = load ptr, ptr %values_.i, align 8
  %26 = load i32, ptr %i.addr.i, align 4
  %idx.ext.i = sext i32 %26 to i64
  %add.ptr.i = getelementptr inbounds i64, ptr %25, i64 %idx.ext.i
  store ptr %add.ptr.i, ptr %slot.addr.i, align 8
  %27 = load ptr, ptr %slot.addr.i, align 8
  store ptr %27, ptr %slot.addr.i33, align 8
  %28 = load ptr, ptr %slot.addr.i33, align 8
  store ptr %retval.i32, ptr %this.addr.i37, align 8
  store ptr %28, ptr %location.addr.i38, align 8
  %this1.i39 = load ptr, ptr %this.addr.i37, align 8
  %29 = load ptr, ptr %location.addr.i38, align 8
  store ptr %this1.i39, ptr %this.addr.i.i, align 8
  store ptr %29, ptr %location.addr.i.i, align 8
  %this1.i.i = load ptr, ptr %this.addr.i.i, align 8
  %30 = load ptr, ptr %location.addr.i.i, align 8
  store ptr %30, ptr %this1.i.i, align 8
  %31 = load ptr, ptr %retval.i32, align 8
  store ptr %31, ptr %ref.tmp.i, align 8
  store ptr %retval.i13, ptr %this.addr.i34, align 8
  store ptr %ref.tmp.i, ptr %other.addr.i35, align 8
  %this1.i36 = load ptr, ptr %this.addr.i34, align 8
  %32 = load ptr, ptr %other.addr.i35, align 8
  call void @llvm.memcpy.p0.p0.i64(ptr align 8 %this1.i36, ptr align 8 %32, i64 8, i1 false)
  %33 = load ptr, ptr %retval.i13, align 8
  store ptr %33, ptr %retval.i, align 8
  br label %_ZNK2v820FunctionCallbackInfoINS_5ValueEEixEi.exit

_ZNK2v820FunctionCallbackInfoINS_5ValueEEixEi.exit: ; preds = %if.end.i, %if.then.i
  %34 = load ptr, ptr %retval.i, align 8
  %coerce.dive = getelementptr inbounds %"class.v8::Local", ptr %ref.tmp, i32 0, i32 0
  %coerce.dive2 = getelementptr inbounds %"class.v8::LocalBase", ptr %coerce.dive, i32 0, i32 0
  %coerce.dive3 = getelementptr inbounds %"class.v8::IndirectHandleBase", ptr %coerce.dive2, i32 0, i32 0
  store ptr %34, ptr %coerce.dive3, align 8
  store ptr %ref.tmp, ptr %this.addr.i6, align 8
  %this1.i7 = load ptr, ptr %this.addr.i6, align 8
  store ptr %this1.i7, ptr %this.addr.i41, align 8
  %this1.i42 = load ptr, ptr %this.addr.i41, align 8
  store ptr %this1.i42, ptr %this.addr.i.i40, align 8
  %this1.i.i43 = load ptr, ptr %this.addr.i.i40, align 8
  %35 = load ptr, ptr %this1.i.i43, align 8
  store ptr %35, ptr %slot.addr.i44, align 8
  %36 = load ptr, ptr %slot.addr.i44, align 8
  %call5 = call noundef zeroext i1 @_ZNK2v85Value6IsTrueEv(ptr noundef nonnull align 1 dereferenceable(1) %36)
  call void @_ZN4node6timers11BindingData22ToggleImmediateRefImplEPS1_b(ptr noundef %call, i1 noundef zeroext %call5)
  ret void
}